target datalayout = "e-m:e-p270:32:32-p271:32:32-p272:64:64-i64:64-i128:128-f80:128-n8:16:32:64-S128"
target triple = "x86_64-pc-linux-gnu"

%"struct.VMATree::RegionData" = type <{ %"struct.NativeCallStackStorage::StackIndex", i8, [3 x i8] }>
%"struct.NativeCallStackStorage::StackIndex" = type { i32 }
%class.MemoryFileTracker = type { %class.NativeCallStackStorage, %class.GrowableArrayCHeap.3 }
%class.NativeCallStackStorage = type { %class.ArrayWithFreeList, i32, ptr, %class.GrowableArrayCHeap.0, i8, %class.NativeCallStack }
%class.ArrayWithFreeList = type <{ %class.GrowableArrayCHeap, i32, [4 x i8] }>
%class.GrowableArrayCHeap = type { %class.GrowableArrayWithAllocator }
%class.GrowableArrayWithAllocator = type { %class.GrowableArrayView }
%class.GrowableArrayView = type { %class.GrowableArrayBase, ptr }
%class.GrowableArrayBase = type { i32, i32 }
%class.GrowableArrayCHeap.0 = type { %class.GrowableArrayWithAllocator.1 }
%class.GrowableArrayWithAllocator.1 = type { %class.GrowableArrayView.2 }
%class.GrowableArrayView.2 = type { %class.GrowableArrayBase, ptr }
%class.NativeCallStack = type { [4 x ptr] }
%class.GrowableArrayCHeap.3 = type { %class.GrowableArrayWithAllocator.4 }
%class.GrowableArrayWithAllocator.4 = type { %class.GrowableArrayView.5 }
%class.GrowableArrayView.5 = type { %class.GrowableArrayBase, ptr }
%"struct.VMATree::SummaryDiff" = type { [28 x %"struct.VMATree::SingleDiff"] }
%"struct.VMATree::SingleDiff" = type { i64, i64 }
%"class.MemoryFileTracker::MemoryFile" = type { ptr, %class.VirtualMemorySnapshot, %class.VMATree }
%class.VirtualMemorySnapshot = type { [28 x %class.VirtualMemory] }
%class.VirtualMemory = type { i64, i64, i64 }
%class.VMATree = type { %class.Treap }
%class.Treap = type <{ %class.TreapCHeapAllocator, [7 x i8], ptr, i64, i32, [4 x i8] }>
%class.TreapCHeapAllocator = type { i8 }

@_ZN17MemoryFileTracker8Instance8_trackerE = hidden global ptr null, align 8

; Function Attrs: mustprogress nounwind uwtable
define linkonce_odr hidden noundef i32 @_ZN7NMTUtil13flag_to_indexE8MEMFLAGS(i8 noundef zeroext %0) #1 comdat align 2 {
  %2 = alloca i8, align 1
  store i8 %0, ptr %2, align 1
  %3 = load i8, ptr %2, align 1
  %4 = zext i8 %3 to i32
  ret i32 %4
}

; Function Attrs: mustprogress nounwind uwtable
define linkonce_odr hidden void @_ZN13VirtualMemory13commit_memoryEm(ptr noundef nonnull align 8 dereferenceable(24) %0, i64 noundef %1) #1 comdat align 2 {
  %3 = alloca ptr, align 8
  %4 = alloca i64, align 8
  store ptr %0, ptr %3, align 8
  store i64 %1, ptr %4, align 8
  %5 = load ptr, ptr %3, align 8
  %6 = load i64, ptr %4, align 8
  %7 = getelementptr inbounds %class.VirtualMemory, ptr %5, i32 0, i32 1
  %8 = load i64, ptr %7, align 8
  %9 = add i64 %8, %6
  store i64 %9, ptr %7, align 8
  %10 = getelementptr inbounds %class.VirtualMemory, ptr %5, i32 0, i32 1
  %11 = load i64, ptr %10, align 8
  call void @_ZN13VirtualMemory11update_peakEm(ptr noundef nonnull align 8 dereferenceable(24) %5, i64 noundef %11)
  ret void
}

; Function Attrs: mustprogress nounwind uwtable
define linkonce_odr hidden void @_ZN13VirtualMemory14reserve_memoryEm(ptr noundef nonnull align 8 dereferenceable(24) %0, i64 noundef %1) #1 comdat align 2 {
  %3 = alloca ptr, align 8
  %4 = alloca i64, align 8
  store ptr %0, ptr %3, align 8
  store i64 %1, ptr %4, align 8
  %5 = load ptr, ptr %3, align 8
  %6 = load i64, ptr %4, align 8
  %7 = getelementptr inbounds %class.VirtualMemory, ptr %5, i32 0, i32 0
  %8 = load i64, ptr %7, align 8
  %9 = add i64 %8, %6
  store i64 %9, ptr %7, align 8
  ret void
}

; Function Attrs: mustprogress nounwind uwtable
define linkonce_odr hidden noundef ptr @_ZN21VirtualMemorySnapshot7by_typeE8MEMFLAGS(ptr noundef nonnull align 8 dereferenceable(672) %0, i8 noundef zeroext %1) #1 comdat align 2 {
  %3 = alloca ptr, align 8
  %4 = alloca i8, align 1
  %5 = alloca i32, align 4
  store ptr %0, ptr %3, align 8
  store i8 %1, ptr %4, align 1
  %6 = load ptr, ptr %3, align 8
  %7 = load i8, ptr %4, align 1
  %8 = call noundef i32 @_ZN7NMTUtil13flag_to_indexE8MEMFLAGS(i8 noundef zeroext %7)
  store i32 %8, ptr %5, align 4
  %9 = getelementptr inbounds %class.VirtualMemorySnapshot, ptr %6, i32 0, i32 0
  %10 = load i32, ptr %5, align 4
  %11 = sext i32 %10 to i64
  %12 = getelementptr inbounds [28 x %class.VirtualMemory], ptr %9, i64 0, i64 %11
  ret ptr %12
}

; Function Attrs: mustprogress nounwind uwtable
define linkonce_odr hidden noundef zeroext i8 @_ZN7NMTUtil13index_to_flagEi(i32 noundef %0) #1 comdat align 2 {
  %2 = alloca i32, align 4
  store i32 %0, ptr %2, align 4
  %3 = load i32, ptr %2, align 4
  %4 = trunc i32 %3 to i8
  ret i8 %4
}

; Function Attrs: mustprogress nounwind uwtable
define linkonce_odr hidden void @_ZN7VMATree14commit_mappingEmmRKNS_10RegionDataE(ptr dead_on_unwind noalias writable sret(%"struct.VMATree::SummaryDiff") align 8 %0, ptr noundef nonnull align 8 dereferenceable(32) %1, i64 noundef %2, i64 noundef %3, ptr noundef nonnull align 4 dereferenceable(5) %4) #1 comdat align 2 {
  %6 = alloca ptr, align 8
  %7 = alloca i64, align 8
  %8 = alloca i64, align 8
  %9 = alloca ptr, align 8
  store ptr %1, ptr %6, align 8
  store i64 %2, ptr %7, align 8
  store i64 %3, ptr %8, align 8
  store ptr %4, ptr %9, align 8
  %10 = load ptr, ptr %6, align 8
  %11 = load i64, ptr %7, align 8
  %12 = load i64, ptr %7, align 8
  %13 = load i64, ptr %8, align 8
  %14 = add i64 %12, %13
  %15 = load ptr, ptr %9, align 8
  call void @_ZN7VMATree16register_mappingEmmNS_9StateTypeERKNS_10RegionDataE(ptr dead_on_unwind writable sret(%"struct.VMATree::SummaryDiff") align 8 %0, ptr noundef nonnull align 8 dereferenceable(32) %10, i64 noundef %11, i64 noundef %14, i8 noundef zeroext 1, ptr noundef nonnull align 4 dereferenceable(5) %15)
  ret void
}

; Function Attrs: mustprogress nounwind uwtable
define linkonce_odr hidden void @_ZN7VMATree10RegionDataC2EN22NativeCallStackStorage10StackIndexE8MEMFLAGS(ptr noundef nonnull align 4 dereferenceable(5) %0, i32 %1, i8 noundef zeroext %2) unnamed_addr #1 comdat align 2 {
  %4 = alloca %"struct.NativeCallStackStorage::StackIndex", align 4
  %5 = alloca ptr, align 8
  %6 = alloca i8, align 1
  %7 = getelementptr inbounds %"struct.NativeCallStackStorage::StackIndex", ptr %4, i32 0, i32 0
  store i32 %1, ptr %7, align 4
  store ptr %0, ptr %5, align 8
  store i8 %2, ptr %6, align 1
  %8 = load ptr, ptr %5, align 8
  %9 = getelementptr inbounds %"struct.VMATree::RegionData", ptr %8, i32 0, i32 0
  call void @llvm.memcpy.p0.p0.i64(ptr align 4 %9, ptr align 4 %4, i64 4, i1 false)
  %10 = getelementptr inbounds %"struct.VMATree::RegionData", ptr %8, i32 0, i32 1
  %11 = load i8, ptr %6, align 1
  store i8 %11, ptr %10, align 4
  ret void
}

; Function Attrs: mustprogress nounwind uwtable
define linkonce_odr hidden i32 @_ZN22NativeCallStackStorage4pushERK15NativeCallStack(ptr noundef nonnull align 8 dereferenceable(96) %0, ptr noundef nonnull align 8 dereferenceable(32) %1) #1 comdat align 2 {
  %3 = alloca %"struct.NativeCallStackStorage::StackIndex", align 4
  %4 = alloca ptr, align 8
  %5 = alloca ptr, align 8
  store ptr %0, ptr %4, align 8
  store ptr %1, ptr %5, align 8
  %6 = load ptr, ptr %4, align 8
  %7 = getelementptr inbounds %class.NativeCallStackStorage, ptr %6, i32 0, i32 4
  %8 = load i8, ptr %7, align 8
  %9 = trunc i8 %8 to i1
  br i1 %9, label %12, label %10

10:                                               ; preds = %2
  %11 = getelementptr inbounds %"struct.NativeCallStackStorage::StackIndex", ptr %3, i32 0, i32 0
  store i32 -1, ptr %11, align 4
  br label %16

12:                                               ; preds = %2
  %13 = load ptr, ptr %5, align 8
  %14 = call i32 @_ZN22NativeCallStackStorage3putERK15NativeCallStack(ptr noundef nonnull align 8 dereferenceable(96) %6, ptr noundef nonnull align 8 dereferenceable(32) %13)
  %15 = getelementptr inbounds %"struct.NativeCallStackStorage::StackIndex", ptr %3, i32 0, i32 0
  store i32 %14, ptr %15, align 4
  br label %16

16:                                               ; preds = %12, %10
  %17 = getelementptr inbounds %"struct.NativeCallStackStorage::StackIndex", ptr %3, i32 0, i32 0
  %18 = load i32, ptr %17, align 4
  ret i32 %18
}

; Function Attrs: mustprogress nounwind uwtable
define hidden void @_ZN17MemoryFileTracker15allocate_memoryEPNS_10MemoryFileEmmRK15NativeCallStack8MEMFLAGS(ptr noundef nonnull align 8 dereferenceable(112) %0, ptr noundef %1, i64 noundef %2, i64 noundef %3, ptr noundef nonnull align 8 dereferenceable(32) %4, i8 noundef zeroext %5) #1 align 2 {
  %7 = alloca ptr, align 8
  %8 = alloca ptr, align 8
  %9 = alloca i64, align 8
  %10 = alloca i64, align 8
  %11 = alloca ptr, align 8
  %12 = alloca i8, align 1
  %13 = alloca %"struct.NativeCallStackStorage::StackIndex", align 4
  %14 = alloca %"struct.VMATree::RegionData", align 4
  %15 = alloca %"struct.NativeCallStackStorage::StackIndex", align 4
  %16 = alloca %"struct.VMATree::SummaryDiff", align 8
  %17 = alloca i32, align 4
  %18 = alloca ptr, align 8
  store ptr %0, ptr %7, align 8
  store ptr %1, ptr %8, align 8
  store i64 %2, ptr %9, align 8
  store i64 %3, ptr %10, align 8
  store ptr %4, ptr %11, align 8
  store i8 %5, ptr %12, align 1
  %19 = load ptr, ptr %7, align 8
  %20 = getelementptr inbounds %class.MemoryFileTracker, ptr %19, i32 0, i32 0
  %21 = load ptr, ptr %11, align 8
  %22 = call i32 @_ZN22NativeCallStackStorage4pushERK15NativeCallStack(ptr noundef nonnull align 8 dereferenceable(96) %20, ptr noundef nonnull align 8 dereferenceable(32) %21)
  %23 = getelementptr inbounds %"struct.NativeCallStackStorage::StackIndex", ptr %13, i32 0, i32 0
  store i32 %22, ptr %23, align 4
  call void @llvm.memcpy.p0.p0.i64(ptr align 4 %15, ptr align 4 %13, i64 4, i1 false)
  %24 = load i8, ptr %12, align 1
  %25 = getelementptr inbounds %"struct.NativeCallStackStorage::StackIndex", ptr %15, i32 0, i32 0
  %26 = load i32, ptr %25, align 4
  call void @_ZN7VMATree10RegionDataC2EN22NativeCallStackStorage10StackIndexE8MEMFLAGS(ptr noundef nonnull align 4 dereferenceable(5) %14, i32 %26, i8 noundef zeroext %24)
  %27 = load ptr, ptr %8, align 8
  %28 = getelementptr inbounds %"class.MemoryFileTracker::MemoryFile", ptr %27, i32 0, i32 2
  %29 = load i64, ptr %9, align 8
  %30 = load i64, ptr %10, align 8
  call void @_ZN7VMATree14commit_mappingEmmRKNS_10RegionDataE(ptr dead_on_unwind writable sret(%"struct.VMATree::SummaryDiff") align 8 %16, ptr noundef nonnull align 8 dereferenceable(32) %28, i64 noundef %29, i64 noundef %30, ptr noundef nonnull align 4 dereferenceable(5) %14)
  store i32 0, ptr %17, align 4
  br label %31

31:                                               ; preds = %54, %6
  %32 = load i32, ptr %17, align 4
  %33 = icmp slt i32 %32, 28
  br i1 %33, label %34, label %57

34:                                               ; preds = %31
  %35 = load ptr, ptr %8, align 8
  %36 = getelementptr inbounds %"class.MemoryFileTracker::MemoryFile", ptr %35, i32 0, i32 1
  %37 = load i32, ptr %17, align 4
  %38 = call noundef zeroext i8 @_ZN7NMTUtil13index_to_flagEi(i32 noundef %37)
  %39 = call noundef ptr @_ZN21VirtualMemorySnapshot7by_typeE8MEMFLAGS(ptr noundef nonnull align 8 dereferenceable(672) %36, i8 noundef zeroext %38)
  store ptr %39, ptr %18, align 8
  %40 = load ptr, ptr %18, align 8
  %41 = getelementptr inbounds %"struct.VMATree::SummaryDiff", ptr %16, i32 0, i32 0
  %42 = load i32, ptr %17, align 4
  %43 = sext i32 %42 to i64
  %44 = getelementptr inbounds [28 x %"struct.VMATree::SingleDiff"], ptr %41, i64 0, i64 %43
  %45 = getelementptr inbounds %"struct.VMATree::SingleDiff", ptr %44, i32 0, i32 1
  %46 = load i64, ptr %45, align 8
  call void @_ZN13VirtualMemory14reserve_memoryEm(ptr noundef nonnull align 8 dereferenceable(24) %40, i64 noundef %46)
  %47 = load ptr, ptr %18, align 8
  %48 = getelementptr inbounds %"struct.VMATree::SummaryDiff", ptr %16, i32 0, i32 0
  %49 = load i32, ptr %17, align 4
  %50 = sext i32 %49 to i64
  %51 = getelementptr inbounds [28 x %"struct.VMATree::SingleDiff"], ptr %48, i64 0, i64 %50
  %52 = getelementptr inbounds %"struct.VMATree::SingleDiff", ptr %51, i32 0, i32 1
  %53 = load i64, ptr %52, align 8
  call void @_ZN13VirtualMemory13commit_memoryEm(ptr noundef nonnull align 8 dereferenceable(24) %47, i64 noundef %53)
  br label %54

54:                                               ; preds = %34
  %55 = load i32, ptr %17, align 4
  %56 = add nsw i32 %55, 1
  store i32 %56, ptr %17, align 4
  br label %31, !llvm.loop !6

57:                                               ; preds = %31
  ret void
}

; Function Attrs: mustprogress nounwind uwtable
define hidden void @_ZN17MemoryFileTracker8Instance15allocate_memoryEPNS_10MemoryFileEmmRK15NativeCallStack8MEMFLAGS(ptr noundef %0, i64 noundef %1, i64 noundef %2, ptr noundef nonnull align 8 dereferenceable(32) %3, i8 noundef zeroext %4) #1 align 2 {
  %6 = alloca ptr, align 8
  %7 = alloca i64, align 8
  %8 = alloca i64, align 8
  %9 = alloca ptr, align 8
  %10 = alloca i8, align 1
  store ptr %0, ptr %6, align 8
  store i64 %1, ptr %7, align 8
  store i64 %2, ptr %8, align 8
  store ptr %3, ptr %9, align 8
  store i8 %4, ptr %10, align 1
  %11 = load ptr, ptr @_ZN17MemoryFileTracker8Instance8_trackerE, align 8
  %12 = load ptr, ptr %6, align 8
  %13 = load i64, ptr %7, align 8
  %14 = load i64, ptr %8, align 8
  %15 = load ptr, ptr %9, align 8
  %16 = load i8, ptr %10, align 1
  call void @_ZN17MemoryFileTracker15allocate_memoryEPNS_10MemoryFileEmmRK15NativeCallStack8MEMFLAGS(ptr noundef nonnull align 8 dereferenceable(112) %11, ptr noundef %12, i64 noundef %13, i64 noundef %14, ptr noundef nonnull align 8 dereferenceable(32) %15, i8 noundef zeroext %16)
  ret void
}