; Function Attrs: mustprogress nounwind uwtable
define hidden void @_ZN17MemoryFileTracker8Instance15allocate_memoryEPNS_10MemoryFileEmmRK15NativeCallStack8MEMFLAGS(ptr noundef %0, i64 noundef %1, i64 noundef %2, ptr noundef nonnull align 8 dereferenceable(32) %3, i8 noundef zeroext %4) local_unnamed_addr #0 align 2 {
  %6 = alloca %"struct.VMATree::RegionData", align 4
  %7 = alloca %"struct.VMATree::SummaryDiff", align 8
  %8 = load ptr, ptr @_ZN17MemoryFileTracker8Instance8_trackerE, align 8
  call void @llvm.lifetime.start.p0(i64 8, ptr nonnull %6)
  call void @llvm.lifetime.start.p0(i64 448, ptr nonnull %7)
  %9 = getelementptr inbounds i8, ptr %8, i64 56
  %10 = load i8, ptr %9, align 8
  %11 = trunc i8 %10 to i1
  br i1 %11, label %12, label %_ZN22NativeCallStackStorage4pushERK15NativeCallStack.exit.i

12:                                               ; preds = %5
  %13 = tail call i32 @_ZN22NativeCallStackStorage3putERK15NativeCallStack(ptr noundef nonnull align 8 dereferenceable(96) %8, ptr noundef nonnull align 8 dereferenceable(32) %3) #10
  br label %_ZN22NativeCallStackStorage4pushERK15NativeCallStack.exit.i

_ZN22NativeCallStackStorage4pushERK15NativeCallStack.exit.i: ; preds = %12, %5
  %.sroa.0.0.i.i = phi i32 [ %13, %12 ], [ -1, %5 ]
  store i32 %.sroa.0.0.i.i, ptr %6, align 4
  %14 = getelementptr inbounds i8, ptr %6, i64 4
  store i8 %4, ptr %14, align 4
  %15 = getelementptr inbounds i8, ptr %0, i64 680
  %16 = add i64 %2, %1
  call void @_ZN7VMATree16register_mappingEmmNS_9StateTypeERKNS_10RegionDataE(ptr dead_on_unwind nonnull writable sret(%"struct.VMATree::SummaryDiff") align 8 %7, ptr noundef nonnull align 8 dereferenceable(32) %15, i64 noundef %1, i64 noundef %16, i8 noundef zeroext 1, ptr noundef nonnull align 4 dereferenceable(5) %6) #10
  %17 = getelementptr inbounds i8, ptr %0, i64 8
  br label %18

18:                                               ; preds = %18, %_ZN22NativeCallStackStorage4pushERK15NativeCallStack.exit.i
  %indvars.iv.i = phi i64 [ 0, %_ZN22NativeCallStackStorage4pushERK15NativeCallStack.exit.i ], [ %indvars.iv.next.i, %18 ]
  %19 = getelementptr inbounds [28 x %class.VirtualMemory], ptr %17, i64 0, i64 %indvars.iv.i
  %20 = getelementptr inbounds [28 x %"struct.VMATree::SingleDiff"], ptr %7, i64 0, i64 %indvars.iv.i, i32 1
  %21 = load i64, ptr %20, align 8
  %22 = load i64, ptr %19, align 8
  %23 = add i64 %22, %21
  store i64 %23, ptr %19, align 8
  %24 = getelementptr inbounds i8, ptr %19, i64 8
  %25 = load i64, ptr %24, align 8
  %26 = add i64 %25, %21
  store i64 %26, ptr %24, align 8
  call void @_ZN13VirtualMemory11update_peakEm(ptr noundef nonnull align 8 dereferenceable(24) %19, i64 noundef %26) #10
  %indvars.iv.next.i = add nuw nsw i64 %indvars.iv.i, 1
  %exitcond.not.i = icmp eq i64 %indvars.iv.next.i, 28
  br i1 %exitcond.not.i, label %_ZN17MemoryFileTracker15allocate_memoryEPNS_10MemoryFileEmmRK15NativeCallStack8MEMFLAGS.exit, label %18, !llvm.loop !6

_ZN17MemoryFileTracker15allocate_memoryEPNS_10MemoryFileEmmRK15NativeCallStack8MEMFLAGS.exit: ; preds = %18
  call void @llvm.lifetime.end.p0(i64 8, ptr nonnull %6)
  call void @llvm.lifetime.end.p0(i64 448, ptr nonnull %7)
  ret void
}